; Function Attrs: mustprogress uwtable
define hidden void @_ZN7datalog17instruction_block16make_annotationsERNS_17execution_contextE(ptr noundef nonnull readonly align 8 captures(none) dereferenceable(16) %0, ptr noundef nonnull align 8 dereferenceable(108) %1) local_unnamed_addr #3 align 2 {
  %3 = load ptr, ptr %0, align 8, !tbaa !381
  %4 = icmp eq ptr %3, null
  br i1 %4, label %._crit_edge, label %_ZN6vectorIPN7datalog11instructionELb0EjE3endEv.exit

_ZN6vectorIPN7datalog11instructionELb0EjE3endEv.exit: ; preds = %2
  %5 = getelementptr inbounds i8, ptr %3, i64 -4
  %6 = load i32, ptr %5, align 4, !tbaa !33
  %7 = zext i32 %6 to i64
  %8 = getelementptr inbounds nuw ptr, ptr %3, i64 %7
  %.not9 = icmp eq i32 %6, 0
  br i1 %.not9, label %._crit_edge, label %.lr.ph

._crit_edge:                                      ; preds = %.lr.ph, %2, %_ZN6vectorIPN7datalog11instructionELb0EjE3endEv.exit
  ret void

.lr.ph:                                           ; preds = %_ZN6vectorIPN7datalog11instructionELb0EjE3endEv.exit, %.lr.ph
  %.010 = phi ptr [ %13, %.lr.ph ], [ %3, %_ZN6vectorIPN7datalog11instructionELb0EjE3endEv.exit ]
  %9 = load ptr, ptr %.010, align 8, !tbaa !384
  %10 = load ptr, ptr %9, align 8, !tbaa !43
  %11 = getelementptr inbounds nuw i8, ptr %10, i64 48
  %12 = load ptr, ptr %11, align 8
  tail call void %12(ptr noundef nonnull align 8 dereferenceable(72) %9, ptr noundef nonnull align 8 dereferenceable(108) %1)
  %13 = getelementptr inbounds nuw i8, ptr %.010, i64 8
  %.not = icmp eq ptr %13, %8
  br i1 %.not, label %._crit_edge, label %.lr.ph
}